; Function Attrs: mustprogress nofree norecurse nosync nounwind willreturn memory(argmem: read) uwtable
define noundef zeroext i1 @_ZN3gmx15cpuIsX86NehalemERKNS_7CpuInfoE(ptr noundef nonnull readonly align 8 captures(none) dereferenceable(128) %0) local_unnamed_addr #16 {
  %2 = getelementptr inbounds nuw i8, ptr %0, i64 4
  %3 = load i32, ptr %2, align 4, !tbaa !5
  %4 = icmp eq i32 %3, 1
  %5 = getelementptr inbounds nuw i8, ptr %0, i64 40
  %6 = load i32, ptr %5, align 8
  %7 = icmp eq i32 %6, 6
  %or.cond = select i1 %4, i1 %7, i1 false
  br i1 %or.cond, label %8, label %switch.edge

8:                                                ; preds = %1
  %9 = getelementptr inbounds nuw i8, ptr %0, i64 44
  %10 = load i32, ptr %9, align 4, !tbaa !85
  %11 = icmp ult i32 %10, 48
  br i1 %11, label %switch.lookup, label %switch.edge

switch.lookup:                                    ; preds = %8
  %switch.cast = zext nneg i32 %10 to i48
  %switch.downshift = lshr i48 -52637978329088, %switch.cast
  %switch.masked = trunc i48 %switch.downshift to i1
  br label %switch.edge

switch.edge:                                      ; preds = %8, %switch.lookup, %1
  %12 = phi i1 [ false, %1 ], [ %switch.masked, %switch.lookup ], [ false, %8 ]
  ret i1 %12
}